; Function Attrs: mustprogress uwtable
define dso_local void @_ZN4Luau7CodeGen3X6418AssemblyBuilderX6411placeBinaryEPKcNS1_10OperandX64ES5_hhhhhhhh(ptr noundef nonnull align 8 dereferenceable(252) %0, ptr noundef %1, i64 %2, i64 %3, i8 noundef zeroext %4, i8 noundef zeroext %5, i8 noundef zeroext %6, i8 noundef zeroext %7, i8 noundef zeroext %8, i8 noundef zeroext %9, i8 noundef zeroext %10, i8 noundef zeroext %11) local_unnamed_addr #0 align 2 {
  %.sroa.055.0.extract.trunc = trunc i64 %2 to i8
  %.sroa.027.0.extract.trunc = trunc i64 %3 to i8
  %13 = getelementptr inbounds nuw i8, ptr %0, i64 80
  %14 = load i8, ptr %13, align 8, !tbaa !14, !range !61, !noundef !62
  %15 = trunc nuw i8 %14 to i1
  br i1 %15, label %16, label %17

16:                                               ; preds = %12
  tail call void @_ZN4Luau7CodeGen3X6418AssemblyBuilderX643logEPKcNS1_10OperandX64ES5_(ptr noundef nonnull align 8 dereferenceable(252) %0, ptr noundef %1, i64 %2, i64 %3)
  br label %17

17:                                               ; preds = %16, %12
  %18 = icmp eq i8 %.sroa.055.0.extract.trunc, 1
  %or.cond = icmp ult i8 %.sroa.055.0.extract.trunc, 2
  %19 = icmp eq i8 %.sroa.027.0.extract.trunc, 2
  %or.cond5 = select i1 %or.cond, i1 %19, i1 false
  br i1 %or.cond5, label %20, label %21

20:                                               ; preds = %17
  tail call void @_ZN4Luau7CodeGen3X6418AssemblyBuilderX6423placeBinaryRegMemAndImmENS1_10OperandX64ES3_hhhh(ptr noundef nonnull align 8 dereferenceable(252) %0, i64 %2, i64 %3, i8 noundef zeroext %4, i8 noundef zeroext %5, i8 noundef zeroext %6, i8 noundef zeroext %11)
  br label %27

21:                                               ; preds = %17
  %22 = icmp eq i8 %.sroa.055.0.extract.trunc, 0
  %or.cond8 = icmp ult i8 %.sroa.027.0.extract.trunc, 2
  %or.cond90 = select i1 %22, i1 %or.cond8, i1 false
  br i1 %or.cond90, label %23, label %24

23:                                               ; preds = %21
  tail call void @_ZN4Luau7CodeGen3X6418AssemblyBuilderX6423placeBinaryRegAndRegMemENS1_10OperandX64ES3_hh(ptr noundef nonnull align 8 dereferenceable(252) %0, i64 %2, i64 %3, i8 noundef zeroext %9, i8 noundef zeroext %10)
  br label %27

24:                                               ; preds = %21
  %25 = icmp eq i8 %.sroa.027.0.extract.trunc, 0
  %or.cond11 = select i1 %18, i1 %25, i1 false
  br i1 %or.cond11, label %26, label %27

26:                                               ; preds = %24
  tail call void @_ZN4Luau7CodeGen3X6418AssemblyBuilderX6423placeBinaryRegAndRegMemENS1_10OperandX64ES3_hh(ptr noundef nonnull align 8 dereferenceable(252) %0, i64 %3, i64 %2, i8 noundef zeroext %7, i8 noundef zeroext %8)
  br label %27

27:                                               ; preds = %23, %24, %26, %20
  ret void
}